target datalayout = "e-m:e-p270:32:32-p271:32:32-p272:64:64-i64:64-i128:128-f80:128-n8:16:32:64-S128"
target triple = "x86_64-pc-linux-gnu"

@.str.1 = private unnamed_addr constant [10 x i8] c"igmp.type\00", align 1
@proto_register_igmp.ett = internal global [4 x ptr] [ptr @ett_igmp, ptr @ett_group_record, ptr @ett_max_resp, ptr @ett_mtrace_block], align 16
@.str.123 = private unnamed_addr constant [35 x i8] c"Internet Group Management Protocol\00", align 1
@.str.124 = private unnamed_addr constant [5 x i8] c"IGMP\00", align 1
@.str.125 = private unnamed_addr constant [5 x i8] c"igmp\00", align 1
@proto_igmp = internal global i32 0, align 4
@.str.126 = private unnamed_addr constant [14 x i8] c"IGMP commands\00", align 1
@subdissector_table = internal global ptr null, align 8
@igmp_handle = internal global ptr null, align 8
@.str.127 = private unnamed_addr constant [8 x i8] c"igmp_v0\00", align 1
@igmpv0_handle = internal global ptr null, align 8
@.str.128 = private unnamed_addr constant [8 x i8] c"igmp_v1\00", align 1
@igmpv1_handle = internal global ptr null, align 8
@.str.129 = private unnamed_addr constant [8 x i8] c"igmp_v2\00", align 1
@igmpv2_handle = internal global ptr null, align 8

; Function Attrs: null_pointer_is_valid sspstrong uwtable
define hidden void @proto_register_igmp() #0 {
  %1 = alloca ptr, align 8
  call void @llvm.lifetime.start.p0(i64 8, ptr %1) #4
  %2 = call i32 @proto_register_protocol(ptr noundef @.str.123, ptr noundef @.str.124, ptr noundef @.str.125)
  store i32 %2, ptr @proto_igmp, align 4
  %3 = load i32, ptr @proto_igmp, align 4
  call void @proto_register_field_array(i32 noundef %3, ptr noundef @proto_register_igmp.hf, i32 noundef 43)
  call void @proto_register_subtree_array(ptr noundef @proto_register_igmp.ett, i32 noundef 4)
  %4 = load i32, ptr @proto_igmp, align 4
  %5 = call ptr @expert_register_protocol(i32 noundef %4)
  store ptr %5, ptr %1, align 8
  %6 = load ptr, ptr %1, align 8
  call void @expert_register_field_array(ptr noundef %6, ptr noundef @proto_register_igmp.ei, i32 noundef 1)
  %7 = load i32, ptr @proto_igmp, align 4
  %8 = call ptr @register_dissector_table(ptr noundef @.str.1, ptr noundef @.str.126, i32 noundef %7, i32 noundef 7, i32 noundef 2)
  store ptr %8, ptr @subdissector_table, align 8
  %9 = load i32, ptr @proto_igmp, align 4
  %10 = call ptr @register_dissector(ptr noundef @.str.125, ptr noundef @dissect_igmp, i32 noundef %9)
  store ptr %10, ptr @igmp_handle, align 8
  %11 = load i32, ptr @proto_igmp, align 4
  %12 = call ptr @register_dissector(ptr noundef @.str.127, ptr noundef @dissect_igmp_v0, i32 noundef %11)
  store ptr %12, ptr @igmpv0_handle, align 8
  %13 = load i32, ptr @proto_igmp, align 4
  %14 = call ptr @register_dissector(ptr noundef @.str.128, ptr noundef @dissect_igmp_v1, i32 noundef %13)
  store ptr %14, ptr @igmpv1_handle, align 8
  %15 = load i32, ptr @proto_igmp, align 4
  %16 = call ptr @register_dissector(ptr noundef @.str.129, ptr noundef @dissect_igmp_v2, i32 noundef %15)
  store ptr %16, ptr @igmpv2_handle, align 8
  call void @llvm.lifetime.end.p0(i64 8, ptr %1) #4
  ret void
}