; Function Attrs: null_pointer_is_valid sspstrong uwtable
define hidden void @proto_register_igmp() local_unnamed_addr #0 {
  %1 = tail call i32 @proto_register_protocol(ptr noundef nonnull @.str.123, ptr noundef nonnull @.str.124, ptr noundef nonnull @.str.125)
  store i32 %1, ptr @proto_igmp, align 4
  tail call void @proto_register_field_array(i32 noundef %1, ptr noundef nonnull @proto_register_igmp.hf, i32 noundef 43)
  tail call void @proto_register_subtree_array(ptr noundef nonnull @proto_register_igmp.ett, i32 noundef 4)
  %2 = load i32, ptr @proto_igmp, align 4
  %3 = tail call ptr @expert_register_protocol(i32 noundef %2)
  tail call void @expert_register_field_array(ptr noundef %3, ptr noundef nonnull @proto_register_igmp.ei, i32 noundef 1)
  %4 = load i32, ptr @proto_igmp, align 4
  %5 = tail call ptr @register_dissector_table(ptr noundef nonnull @.str.1, ptr noundef nonnull @.str.126, i32 noundef %4, i32 noundef 7, i32 noundef 2)
  store ptr %5, ptr @subdissector_table, align 8
  %6 = load i32, ptr @proto_igmp, align 4
  %7 = tail call ptr @register_dissector(ptr noundef nonnull @.str.125, ptr noundef nonnull @dissect_igmp, i32 noundef %6)
  store ptr %7, ptr @igmp_handle, align 8
  %8 = load i32, ptr @proto_igmp, align 4
  %9 = tail call ptr @register_dissector(ptr noundef nonnull @.str.127, ptr noundef nonnull @dissect_igmp_v0, i32 noundef %8)
  store ptr %9, ptr @igmpv0_handle, align 8
  %10 = load i32, ptr @proto_igmp, align 4
  %11 = tail call ptr @register_dissector(ptr noundef nonnull @.str.128, ptr noundef nonnull @dissect_igmp_v1, i32 noundef %10)
  store ptr %11, ptr @igmpv1_handle, align 8
  %12 = load i32, ptr @proto_igmp, align 4
  %13 = tail call ptr @register_dissector(ptr noundef nonnull @.str.129, ptr noundef nonnull @dissect_igmp_v2, i32 noundef %12)
  store ptr %13, ptr @igmpv2_handle, align 8
  ret void
}